target datalayout = "e-m:e-p270:32:32-p271:32:32-p272:64:64-i64:64-i128:128-f80:128-n8:16:32:64-S128"
target triple = "x86_64-pc-linux-gnu"

%struct.Pxy_t = type { double, double }

; Function Attrs: nounwind uwtable
define i32 @ccw(double %0, double %1, double %2, double %3, double %4, double %5) #0 {
  %7 = alloca %struct.Pxy_t, align 8
  %8 = alloca %struct.Pxy_t, align 8
  %9 = alloca %struct.Pxy_t, align 8
  %10 = alloca double, align 8
  %11 = getelementptr inbounds nuw { double, double }, ptr %7, i32 0, i32 0
  store double %0, ptr %11, align 8
  %12 = getelementptr inbounds nuw { double, double }, ptr %7, i32 0, i32 1
  store double %1, ptr %12, align 8
  %13 = getelementptr inbounds nuw { double, double }, ptr %8, i32 0, i32 0
  store double %2, ptr %13, align 8
  %14 = getelementptr inbounds nuw { double, double }, ptr %8, i32 0, i32 1
  store double %3, ptr %14, align 8
  %15 = getelementptr inbounds nuw { double, double }, ptr %9, i32 0, i32 0
  store double %4, ptr %15, align 8
  %16 = getelementptr inbounds nuw { double, double }, ptr %9, i32 0, i32 1
  store double %5, ptr %16, align 8
  call void @llvm.lifetime.start.p0(i64 8, ptr %10) #9
  %17 = getelementptr inbounds nuw %struct.Pxy_t, ptr %7, i32 0, i32 1
  %18 = load double, ptr %17, align 8, !tbaa !3
  %19 = getelementptr inbounds nuw %struct.Pxy_t, ptr %8, i32 0, i32 1
  %20 = load double, ptr %19, align 8, !tbaa !3
  %21 = fsub double %18, %20
  %22 = getelementptr inbounds nuw %struct.Pxy_t, ptr %9, i32 0, i32 0
  %23 = load double, ptr %22, align 8, !tbaa !8
  %24 = getelementptr inbounds nuw %struct.Pxy_t, ptr %8, i32 0, i32 0
  %25 = load double, ptr %24, align 8, !tbaa !8
  %26 = fsub double %23, %25
  %27 = getelementptr inbounds nuw %struct.Pxy_t, ptr %9, i32 0, i32 1
  %28 = load double, ptr %27, align 8, !tbaa !3
  %29 = getelementptr inbounds nuw %struct.Pxy_t, ptr %8, i32 0, i32 1
  %30 = load double, ptr %29, align 8, !tbaa !3
  %31 = fsub double %28, %30
  %32 = getelementptr inbounds nuw %struct.Pxy_t, ptr %7, i32 0, i32 0
  %33 = load double, ptr %32, align 8, !tbaa !8
  %34 = getelementptr inbounds nuw %struct.Pxy_t, ptr %8, i32 0, i32 0
  %35 = load double, ptr %34, align 8, !tbaa !8
  %36 = fsub double %33, %35
  %37 = fmul double %31, %36
  %38 = fneg double %37
  %39 = call double @llvm.fmuladd.f64(double %21, double %26, double %38)
  store double %39, ptr %10, align 8, !tbaa !9
  %40 = load double, ptr %10, align 8, !tbaa !9
  %41 = fcmp ogt double %40, 0.000000e+00
  br i1 %41, label %42, label %43

42:                                               ; preds = %6
  br label %47

43:                                               ; preds = %6
  %44 = load double, ptr %10, align 8, !tbaa !9
  %45 = fcmp olt double %44, 0.000000e+00
  %46 = select i1 %45, i32 1, i32 3
  br label %47

47:                                               ; preds = %43, %42
  %48 = phi i32 [ 2, %42 ], [ %46, %43 ]
  call void @llvm.lifetime.end.p0(i64 8, ptr %10) #9
  ret i32 %48
}

; Function Attrs: nounwind uwtable
define zeroext i1 @isdiagonal(i64 noundef %0, i64 noundef %1, ptr noundef %2, i64 noundef %3, ptr noundef %4) #0 {
  %6 = alloca i1, align 1
  %7 = alloca i64, align 8
  %8 = alloca i64, align 8
  %9 = alloca ptr, align 8
  %10 = alloca i64, align 8
  %11 = alloca ptr, align 8
  %12 = alloca i32, align 4
  %13 = alloca i64, align 8
  %14 = alloca i64, align 8
  %15 = alloca %struct.Pxy_t, align 8
  %16 = alloca %struct.Pxy_t, align 8
  %17 = alloca %struct.Pxy_t, align 8
  %18 = alloca %struct.Pxy_t, align 8
  %19 = alloca %struct.Pxy_t, align 8
  %20 = alloca %struct.Pxy_t, align 8
  %21 = alloca %struct.Pxy_t, align 8
  %22 = alloca %struct.Pxy_t, align 8
  %23 = alloca %struct.Pxy_t, align 8
  %24 = alloca %struct.Pxy_t, align 8
  %25 = alloca %struct.Pxy_t, align 8
  %26 = alloca %struct.Pxy_t, align 8
  %27 = alloca i32, align 4
  %28 = alloca i64, align 8
  %29 = alloca i64, align 8
  %30 = alloca %struct.Pxy_t, align 8
  %31 = alloca %struct.Pxy_t, align 8
  %32 = alloca %struct.Pxy_t, align 8
  %33 = alloca %struct.Pxy_t, align 8
  store i64 %0, ptr %7, align 8, !tbaa !18
  store i64 %1, ptr %8, align 8, !tbaa !18
  store ptr %2, ptr %9, align 8, !tbaa !13
  store i64 %3, ptr %10, align 8, !tbaa !18
  store ptr %4, ptr %11, align 8, !tbaa !13
  call void @llvm.lifetime.start.p0(i64 4, ptr %12) #9
  call void @llvm.lifetime.start.p0(i64 8, ptr %13) #9
  %34 = load i64, ptr %7, align 8, !tbaa !18
  %35 = add i64 %34, 1
  %36 = load i64, ptr %10, align 8, !tbaa !18
  %37 = urem i64 %35, %36
  store i64 %37, ptr %13, align 8, !tbaa !18
  call void @llvm.lifetime.start.p0(i64 8, ptr %14) #9
  %38 = load i64, ptr %7, align 8, !tbaa !18
  %39 = load i64, ptr %10, align 8, !tbaa !18
  %40 = add i64 %38, %39
  %41 = sub i64 %40, 1
  %42 = load i64, ptr %10, align 8, !tbaa !18
  %43 = urem i64 %41, %42
  store i64 %43, ptr %14, align 8, !tbaa !18
  %44 = load ptr, ptr %11, align 8, !tbaa !13
  %45 = load ptr, ptr %9, align 8, !tbaa !13
  %46 = load i64, ptr %14, align 8, !tbaa !18
  %47 = call { double, double } %44(ptr noundef %45, i64 noundef %46)
  %48 = getelementptr inbounds nuw { double, double }, ptr %15, i32 0, i32 0
  %49 = extractvalue { double, double } %47, 0
  store double %49, ptr %48, align 8
  %50 = getelementptr inbounds nuw { double, double }, ptr %15, i32 0, i32 1
  %51 = extractvalue { double, double } %47, 1
  store double %51, ptr %50, align 8
  %52 = load ptr, ptr %11, align 8, !tbaa !13
  %53 = load ptr, ptr %9, align 8, !tbaa !13
  %54 = load i64, ptr %7, align 8, !tbaa !18
  %55 = call { double, double } %52(ptr noundef %53, i64 noundef %54)
  %56 = getelementptr inbounds nuw { double, double }, ptr %16, i32 0, i32 0
  %57 = extractvalue { double, double } %55, 0
  store double %57, ptr %56, align 8
  %58 = getelementptr inbounds nuw { double, double }, ptr %16, i32 0, i32 1
  %59 = extractvalue { double, double } %55, 1
  store double %59, ptr %58, align 8
  %60 = load ptr, ptr %11, align 8, !tbaa !13
  %61 = load ptr, ptr %9, align 8, !tbaa !13
  %62 = load i64, ptr %13, align 8, !tbaa !18
  %63 = call { double, double } %60(ptr noundef %61, i64 noundef %62)
  %64 = getelementptr inbounds nuw { double, double }, ptr %17, i32 0, i32 0
  %65 = extractvalue { double, double } %63, 0
  store double %65, ptr %64, align 8
  %66 = getelementptr inbounds nuw { double, double }, ptr %17, i32 0, i32 1
  %67 = extractvalue { double, double } %63, 1
  store double %67, ptr %66, align 8
  %68 = getelementptr inbounds nuw { double, double }, ptr %15, i32 0, i32 0
  %69 = load double, ptr %68, align 8
  %70 = getelementptr inbounds nuw { double, double }, ptr %15, i32 0, i32 1
  %71 = load double, ptr %70, align 8
  %72 = getelementptr inbounds nuw { double, double }, ptr %16, i32 0, i32 0
  %73 = load double, ptr %72, align 8
  %74 = getelementptr inbounds nuw { double, double }, ptr %16, i32 0, i32 1
  %75 = load double, ptr %74, align 8
  %76 = getelementptr inbounds nuw { double, double }, ptr %17, i32 0, i32 0
  %77 = load double, ptr %76, align 8
  %78 = getelementptr inbounds nuw { double, double }, ptr %17, i32 0, i32 1
  %79 = load double, ptr %78, align 8
  %80 = call i32 @ccw(double %69, double %71, double %73, double %75, double %77, double %79)
  %81 = icmp eq i32 %80, 1
  br i1 %81, label %82, label %163

82:                                               ; preds = %5
  %83 = load ptr, ptr %11, align 8, !tbaa !13
  %84 = load ptr, ptr %9, align 8, !tbaa !13
  %85 = load i64, ptr %7, align 8, !tbaa !18
  %86 = call { double, double } %83(ptr noundef %84, i64 noundef %85)
  %87 = getelementptr inbounds nuw { double, double }, ptr %18, i32 0, i32 0
  %88 = extractvalue { double, double } %86, 0
  store double %88, ptr %87, align 8
  %89 = getelementptr inbounds nuw { double, double }, ptr %18, i32 0, i32 1
  %90 = extractvalue { double, double } %86, 1
  store double %90, ptr %89, align 8
  %91 = load ptr, ptr %11, align 8, !tbaa !13
  %92 = load ptr, ptr %9, align 8, !tbaa !13
  %93 = load i64, ptr %8, align 8, !tbaa !18
  %94 = call { double, double } %91(ptr noundef %92, i64 noundef %93)
  %95 = getelementptr inbounds nuw { double, double }, ptr %19, i32 0, i32 0
  %96 = extractvalue { double, double } %94, 0
  store double %96, ptr %95, align 8
  %97 = getelementptr inbounds nuw { double, double }, ptr %19, i32 0, i32 1
  %98 = extractvalue { double, double } %94, 1
  store double %98, ptr %97, align 8
  %99 = load ptr, ptr %11, align 8, !tbaa !13
  %100 = load ptr, ptr %9, align 8, !tbaa !13
  %101 = load i64, ptr %14, align 8, !tbaa !18
  %102 = call { double, double } %99(ptr noundef %100, i64 noundef %101)
  %103 = getelementptr inbounds nuw { double, double }, ptr %20, i32 0, i32 0
  %104 = extractvalue { double, double } %102, 0
  store double %104, ptr %103, align 8
  %105 = getelementptr inbounds nuw { double, double }, ptr %20, i32 0, i32 1
  %106 = extractvalue { double, double } %102, 1
  store double %106, ptr %105, align 8
  %107 = getelementptr inbounds nuw { double, double }, ptr %18, i32 0, i32 0
  %108 = load double, ptr %107, align 8
  %109 = getelementptr inbounds nuw { double, double }, ptr %18, i32 0, i32 1
  %110 = load double, ptr %109, align 8
  %111 = getelementptr inbounds nuw { double, double }, ptr %19, i32 0, i32 0
  %112 = load double, ptr %111, align 8
  %113 = getelementptr inbounds nuw { double, double }, ptr %19, i32 0, i32 1
  %114 = load double, ptr %113, align 8
  %115 = getelementptr inbounds nuw { double, double }, ptr %20, i32 0, i32 0
  %116 = load double, ptr %115, align 8
  %117 = getelementptr inbounds nuw { double, double }, ptr %20, i32 0, i32 1
  %118 = load double, ptr %117, align 8
  %119 = call i32 @ccw(double %108, double %110, double %112, double %114, double %116, double %118)
  %120 = icmp eq i32 %119, 1
  br i1 %120, label %121, label %160

121:                                              ; preds = %82
  %122 = load ptr, ptr %11, align 8, !tbaa !13
  %123 = load ptr, ptr %9, align 8, !tbaa !13
  %124 = load i64, ptr %8, align 8, !tbaa !18
  %125 = call { double, double } %122(ptr noundef %123, i64 noundef %124)
  %126 = getelementptr inbounds nuw { double, double }, ptr %21, i32 0, i32 0
  %127 = extractvalue { double, double } %125, 0
  store double %127, ptr %126, align 8
  %128 = getelementptr inbounds nuw { double, double }, ptr %21, i32 0, i32 1
  %129 = extractvalue { double, double } %125, 1
  store double %129, ptr %128, align 8
  %130 = load ptr, ptr %11, align 8, !tbaa !13
  %131 = load ptr, ptr %9, align 8, !tbaa !13
  %132 = load i64, ptr %7, align 8, !tbaa !18
  %133 = call { double, double } %130(ptr noundef %131, i64 noundef %132)
  %134 = getelementptr inbounds nuw { double, double }, ptr %22, i32 0, i32 0
  %135 = extractvalue { double, double } %133, 0
  store double %135, ptr %134, align 8
  %136 = getelementptr inbounds nuw { double, double }, ptr %22, i32 0, i32 1
  %137 = extractvalue { double, double } %133, 1
  store double %137, ptr %136, align 8
  %138 = load ptr, ptr %11, align 8, !tbaa !13
  %139 = load ptr, ptr %9, align 8, !tbaa !13
  %140 = load i64, ptr %13, align 8, !tbaa !18
  %141 = call { double, double } %138(ptr noundef %139, i64 noundef %140)
  %142 = getelementptr inbounds nuw { double, double }, ptr %23, i32 0, i32 0
  %143 = extractvalue { double, double } %141, 0
  store double %143, ptr %142, align 8
  %144 = getelementptr inbounds nuw { double, double }, ptr %23, i32 0, i32 1
  %145 = extractvalue { double, double } %141, 1
  store double %145, ptr %144, align 8
  %146 = getelementptr inbounds nuw { double, double }, ptr %21, i32 0, i32 0
  %147 = load double, ptr %146, align 8
  %148 = getelementptr inbounds nuw { double, double }, ptr %21, i32 0, i32 1
  %149 = load double, ptr %148, align 8
  %150 = getelementptr inbounds nuw { double, double }, ptr %22, i32 0, i32 0
  %151 = load double, ptr %150, align 8
  %152 = getelementptr inbounds nuw { double, double }, ptr %22, i32 0, i32 1
  %153 = load double, ptr %152, align 8
  %154 = getelementptr inbounds nuw { double, double }, ptr %23, i32 0, i32 0
  %155 = load double, ptr %154, align 8
  %156 = getelementptr inbounds nuw { double, double }, ptr %23, i32 0, i32 1
  %157 = load double, ptr %156, align 8
  %158 = call i32 @ccw(double %147, double %149, double %151, double %153, double %155, double %157)
  %159 = icmp eq i32 %158, 1
  br label %160

160:                                              ; preds = %121, %82
  %161 = phi i1 [ false, %82 ], [ %159, %121 ]
  %162 = zext i1 %161 to i32
  store i32 %162, ptr %12, align 4, !tbaa !30
  br label %203

163:                                              ; preds = %5
  %164 = load ptr, ptr %11, align 8, !tbaa !13
  %165 = load ptr, ptr %9, align 8, !tbaa !13
  %166 = load i64, ptr %7, align 8, !tbaa !18
  %167 = call { double, double } %164(ptr noundef %165, i64 noundef %166)
  %168 = getelementptr inbounds nuw { double, double }, ptr %24, i32 0, i32 0
  %169 = extractvalue { double, double } %167, 0
  store double %169, ptr %168, align 8
  %170 = getelementptr inbounds nuw { double, double }, ptr %24, i32 0, i32 1
  %171 = extractvalue { double, double } %167, 1
  store double %171, ptr %170, align 8
  %172 = load ptr, ptr %11, align 8, !tbaa !13
  %173 = load ptr, ptr %9, align 8, !tbaa !13
  %174 = load i64, ptr %8, align 8, !tbaa !18
  %175 = call { double, double } %172(ptr noundef %173, i64 noundef %174)
  %176 = getelementptr inbounds nuw { double, double }, ptr %25, i32 0, i32 0
  %177 = extractvalue { double, double } %175, 0
  store double %177, ptr %176, align 8
  %178 = getelementptr inbounds nuw { double, double }, ptr %25, i32 0, i32 1
  %179 = extractvalue { double, double } %175, 1
  store double %179, ptr %178, align 8
  %180 = load ptr, ptr %11, align 8, !tbaa !13
  %181 = load ptr, ptr %9, align 8, !tbaa !13
  %182 = load i64, ptr %13, align 8, !tbaa !18
  %183 = call { double, double } %180(ptr noundef %181, i64 noundef %182)
  %184 = getelementptr inbounds nuw { double, double }, ptr %26, i32 0, i32 0
  %185 = extractvalue { double, double } %183, 0
  store double %185, ptr %184, align 8
  %186 = getelementptr inbounds nuw { double, double }, ptr %26, i32 0, i32 1
  %187 = extractvalue { double, double } %183, 1
  store double %187, ptr %186, align 8
  %188 = getelementptr inbounds nuw { double, double }, ptr %24, i32 0, i32 0
  %189 = load double, ptr %188, align 8
  %190 = getelementptr inbounds nuw { double, double }, ptr %24, i32 0, i32 1
  %191 = load double, ptr %190, align 8
  %192 = getelementptr inbounds nuw { double, double }, ptr %25, i32 0, i32 0
  %193 = load double, ptr %192, align 8
  %194 = getelementptr inbounds nuw { double, double }, ptr %25, i32 0, i32 1
  %195 = load double, ptr %194, align 8
  %196 = getelementptr inbounds nuw { double, double }, ptr %26, i32 0, i32 0
  %197 = load double, ptr %196, align 8
  %198 = getelementptr inbounds nuw { double, double }, ptr %26, i32 0, i32 1
  %199 = load double, ptr %198, align 8
  %200 = call i32 @ccw(double %189, double %191, double %193, double %195, double %197, double %199)
  %201 = icmp eq i32 %200, 2
  %202 = zext i1 %201 to i32
  store i32 %202, ptr %12, align 4, !tbaa !30
  br label %203

203:                                              ; preds = %163, %160
  %204 = load i32, ptr %12, align 4, !tbaa !30
  %205 = icmp ne i32 %204, 0
  br i1 %205, label %207, label %206

206:                                              ; preds = %203
  store i1 false, ptr %6, align 1
  store i32 1, ptr %27, align 4
  br label %295

207:                                              ; preds = %203
  call void @llvm.lifetime.start.p0(i64 8, ptr %28) #9
  store i64 0, ptr %28, align 8, !tbaa !18
  br label %208

208:                                              ; preds = %289, %207
  %209 = load i64, ptr %28, align 8, !tbaa !18
  %210 = load i64, ptr %10, align 8, !tbaa !18
  %211 = icmp ult i64 %209, %210
  br i1 %211, label %213, label %212

212:                                              ; preds = %208
  store i32 2, ptr %27, align 4
  br label %292

213:                                              ; preds = %208
  call void @llvm.lifetime.start.p0(i64 8, ptr %29) #9
  %214 = load i64, ptr %28, align 8, !tbaa !18
  %215 = add i64 %214, 1
  %216 = load i64, ptr %10, align 8, !tbaa !18
  %217 = urem i64 %215, %216
  store i64 %217, ptr %29, align 8, !tbaa !18
  %218 = load i64, ptr %28, align 8, !tbaa !18
  %219 = load i64, ptr %7, align 8, !tbaa !18
  %220 = icmp eq i64 %218, %219
  br i1 %220, label %285, label %221

221:                                              ; preds = %213
  %222 = load i64, ptr %29, align 8, !tbaa !18
  %223 = load i64, ptr %7, align 8, !tbaa !18
  %224 = icmp eq i64 %222, %223
  br i1 %224, label %285, label %225

225:                                              ; preds = %221
  %226 = load i64, ptr %28, align 8, !tbaa !18
  %227 = load i64, ptr %8, align 8, !tbaa !18
  %228 = icmp eq i64 %226, %227
  br i1 %228, label %285, label %229

229:                                              ; preds = %225
  %230 = load i64, ptr %29, align 8, !tbaa !18
  %231 = load i64, ptr %8, align 8, !tbaa !18
  %232 = icmp eq i64 %230, %231
  br i1 %232, label %285, label %233

233:                                              ; preds = %229
  %234 = load ptr, ptr %11, align 8, !tbaa !13
  %235 = load ptr, ptr %9, align 8, !tbaa !13
  %236 = load i64, ptr %7, align 8, !tbaa !18
  %237 = call { double, double } %234(ptr noundef %235, i64 noundef %236)
  %238 = getelementptr inbounds nuw { double, double }, ptr %30, i32 0, i32 0
  %239 = extractvalue { double, double } %237, 0
  store double %239, ptr %238, align 8
  %240 = getelementptr inbounds nuw { double, double }, ptr %30, i32 0, i32 1
  %241 = extractvalue { double, double } %237, 1
  store double %241, ptr %240, align 8
  %242 = load ptr, ptr %11, align 8, !tbaa !13
  %243 = load ptr, ptr %9, align 8, !tbaa !13
  %244 = load i64, ptr %8, align 8, !tbaa !18
  %245 = call { double, double } %242(ptr noundef %243, i64 noundef %244)
  %246 = getelementptr inbounds nuw { double, double }, ptr %31, i32 0, i32 0
  %247 = extractvalue { double, double } %245, 0
  store double %247, ptr %246, align 8
  %248 = getelementptr inbounds nuw { double, double }, ptr %31, i32 0, i32 1
  %249 = extractvalue { double, double } %245, 1
  store double %249, ptr %248, align 8
  %250 = load ptr, ptr %11, align 8, !tbaa !13
  %251 = load ptr, ptr %9, align 8, !tbaa !13
  %252 = load i64, ptr %28, align 8, !tbaa !18
  %253 = call { double, double } %250(ptr noundef %251, i64 noundef %252)
  %254 = getelementptr inbounds nuw { double, double }, ptr %32, i32 0, i32 0
  %255 = extractvalue { double, double } %253, 0
  store double %255, ptr %254, align 8
  %256 = getelementptr inbounds nuw { double, double }, ptr %32, i32 0, i32 1
  %257 = extractvalue { double, double } %253, 1
  store double %257, ptr %256, align 8
  %258 = load ptr, ptr %11, align 8, !tbaa !13
  %259 = load ptr, ptr %9, align 8, !tbaa !13
  %260 = load i64, ptr %29, align 8, !tbaa !18
  %261 = call { double, double } %258(ptr noundef %259, i64 noundef %260)
  %262 = getelementptr inbounds nuw { double, double }, ptr %33, i32 0, i32 0
  %263 = extractvalue { double, double } %261, 0
  store double %263, ptr %262, align 8
  %264 = getelementptr inbounds nuw { double, double }, ptr %33, i32 0, i32 1
  %265 = extractvalue { double, double } %261, 1
  store double %265, ptr %264, align 8
  %266 = getelementptr inbounds nuw { double, double }, ptr %30, i32 0, i32 0
  %267 = load double, ptr %266, align 8
  %268 = getelementptr inbounds nuw { double, double }, ptr %30, i32 0, i32 1
  %269 = load double, ptr %268, align 8
  %270 = getelementptr inbounds nuw { double, double }, ptr %31, i32 0, i32 0
  %271 = load double, ptr %270, align 8
  %272 = getelementptr inbounds nuw { double, double }, ptr %31, i32 0, i32 1
  %273 = load double, ptr %272, align 8
  %274 = getelementptr inbounds nuw { double, double }, ptr %32, i32 0, i32 0
  %275 = load double, ptr %274, align 8
  %276 = getelementptr inbounds nuw { double, double }, ptr %32, i32 0, i32 1
  %277 = load double, ptr %276, align 8
  %278 = getelementptr inbounds nuw { double, double }, ptr %33, i32 0, i32 0
  %279 = load double, ptr %278, align 8
  %280 = getelementptr inbounds nuw { double, double }, ptr %33, i32 0, i32 1
  %281 = load double, ptr %280, align 8
  %282 = call zeroext i1 @intersects(double %267, double %269, double %271, double %273, double %275, double %277, double %279, double %281)
  br i1 %282, label %283, label %284

283:                                              ; preds = %233
  store i1 false, ptr %6, align 1
  store i32 1, ptr %27, align 4
  br label %286

284:                                              ; preds = %233
  br label %285

285:                                              ; preds = %284, %229, %225, %221, %213
  store i32 0, ptr %27, align 4
  br label %286

286:                                              ; preds = %285, %283
  call void @llvm.lifetime.end.p0(i64 8, ptr %29) #9
  %287 = load i32, ptr %27, align 4
  switch i32 %287, label %292 [
    i32 0, label %288
  ]

288:                                              ; preds = %286
  br label %289

289:                                              ; preds = %288
  %290 = load i64, ptr %28, align 8, !tbaa !18
  %291 = add i64 %290, 1
  store i64 %291, ptr %28, align 8, !tbaa !18
  br label %208, !llvm.loop !32

292:                                              ; preds = %286, %212
  call void @llvm.lifetime.end.p0(i64 8, ptr %28) #9
  %293 = load i32, ptr %27, align 4
  switch i32 %293, label %295 [
    i32 2, label %294
  ]

294:                                              ; preds = %292
  store i1 true, ptr %6, align 1
  store i32 1, ptr %27, align 4
  br label %295

295:                                              ; preds = %294, %292, %206
  call void @llvm.lifetime.end.p0(i64 8, ptr %14) #9
  call void @llvm.lifetime.end.p0(i64 8, ptr %13) #9
  call void @llvm.lifetime.end.p0(i64 4, ptr %12) #9
  %296 = load i1, ptr %6, align 1
  ret i1 %296
}