; Function Attrs: nounwind uwtable
define noundef zeroext i1 @isdiagonal(i64 noundef %0, i64 noundef %1, ptr noundef %2, i64 noundef %3, ptr noundef readonly captures(none) %4) local_unnamed_addr #3 {
  %6 = add i64 %0, 1
  %7 = urem i64 %6, %3
  %8 = add i64 %0, -1
  %9 = add i64 %8, %3
  %10 = urem i64 %9, %3
  %11 = tail call { double, double } %4(ptr noundef %2, i64 noundef %10) #14
  %12 = extractvalue { double, double } %11, 0
  %13 = extractvalue { double, double } %11, 1
  %14 = tail call { double, double } %4(ptr noundef %2, i64 noundef %0) #14
  %15 = extractvalue { double, double } %14, 0
  %16 = extractvalue { double, double } %14, 1
  %17 = tail call { double, double } %4(ptr noundef %2, i64 noundef %7) #14
  %18 = extractvalue { double, double } %17, 0
  %19 = extractvalue { double, double } %17, 1
  %20 = fsub double %13, %16
  %21 = fsub double %18, %15
  %22 = fsub double %19, %16
  %23 = fsub double %12, %15
  %24 = fneg double %23
  %25 = fmul double %22, %24
  %26 = tail call double @llvm.fmuladd.f64(double %20, double %21, double %25)
  %27 = fcmp olt double %26, 0.000000e+00
  %28 = tail call { double, double } %4(ptr noundef %2, i64 noundef %0) #14
  %29 = extractvalue { double, double } %28, 0
  %30 = extractvalue { double, double } %28, 1
  %31 = tail call { double, double } %4(ptr noundef %2, i64 noundef %1) #14
  %32 = extractvalue { double, double } %31, 0
  %33 = extractvalue { double, double } %31, 1
  %34 = fsub double %30, %33
  %35 = fsub double %29, %32
  %36 = fneg double %35
  br i1 %27, label %37, label %46

37:                                               ; preds = %5
  %38 = tail call { double, double } %4(ptr noundef %2, i64 noundef %10) #14
  %39 = extractvalue { double, double } %38, 0
  %40 = extractvalue { double, double } %38, 1
  %41 = fsub double %39, %32
  %42 = fsub double %40, %33
  %43 = fmul double %42, %36
  %44 = tail call double @llvm.fmuladd.f64(double %34, double %41, double %43)
  %45 = fcmp olt double %44, 0.000000e+00
  br i1 %45, label %55, label %.critedge

46:                                               ; preds = %5
  %47 = tail call { double, double } %4(ptr noundef %2, i64 noundef %7) #14
  %48 = extractvalue { double, double } %47, 0
  %49 = extractvalue { double, double } %47, 1
  %50 = fsub double %48, %32
  %51 = fsub double %49, %33
  %52 = fmul double %51, %36
  %53 = tail call double @llvm.fmuladd.f64(double %34, double %50, double %52)
  %54 = fcmp ogt double %53, 0.000000e+00
  br i1 %54, label %.preheader, label %.critedge

55:                                               ; preds = %37
  %56 = tail call { double, double } %4(ptr noundef %2, i64 noundef %1) #14
  %57 = extractvalue { double, double } %56, 0
  %58 = extractvalue { double, double } %56, 1
  %59 = tail call { double, double } %4(ptr noundef %2, i64 noundef %0) #14
  %60 = extractvalue { double, double } %59, 0
  %61 = extractvalue { double, double } %59, 1
  %62 = tail call { double, double } %4(ptr noundef %2, i64 noundef %7) #14
  %63 = extractvalue { double, double } %62, 0
  %64 = extractvalue { double, double } %62, 1
  %65 = fsub double %58, %61
  %66 = fsub double %63, %60
  %67 = fsub double %64, %61
  %68 = fsub double %57, %60
  %69 = fneg double %68
  %70 = fmul double %67, %69
  %71 = tail call double @llvm.fmuladd.f64(double %65, double %66, double %70)
  %.not113 = fcmp olt double %71, 0.000000e+00
  br i1 %.not113, label %.preheader, label %.critedge

.preheader:                                       ; preds = %55, %46
  %umax = tail call i64 @llvm.umax.i64(i64 %3, i64 1)
  br label %72

72:                                               ; preds = %.preheader, %.critedge111
  %.0103114 = phi i64 [ 0, %.preheader ], [ %73, %.critedge111 ]
  %73 = add nuw i64 %.0103114, 1
  %74 = icmp eq i64 %73, %3
  %75 = select i1 %74, i64 0, i64 %73
  %76 = icmp eq i64 %.0103114, %0
  %77 = icmp eq i64 %75, %0
  %or.cond = or i1 %76, %77
  %78 = icmp eq i64 %.0103114, %1
  %or.cond108 = or i1 %78, %or.cond
  %79 = icmp eq i64 %75, %1
  %or.cond109 = or i1 %79, %or.cond108
  br i1 %or.cond109, label %.critedge111, label %80

80:                                               ; preds = %72
  %81 = tail call { double, double } %4(ptr noundef %2, i64 noundef %0) #14
  %82 = extractvalue { double, double } %81, 0
  %83 = extractvalue { double, double } %81, 1
  %84 = tail call { double, double } %4(ptr noundef %2, i64 noundef %1) #14
  %85 = extractvalue { double, double } %84, 0
  %86 = extractvalue { double, double } %84, 1
  %87 = tail call { double, double } %4(ptr noundef %2, i64 noundef %.0103114) #14
  %88 = extractvalue { double, double } %87, 0
  %89 = extractvalue { double, double } %87, 1
  %90 = tail call { double, double } %4(ptr noundef %2, i64 noundef %75) #14
  %91 = extractvalue { double, double } %90, 0
  %92 = extractvalue { double, double } %90, 1
  %93 = tail call zeroext i1 @intersects(double %82, double %83, double %85, double %86, double %88, double %89, double %91, double %92)
  br i1 %93, label %.critedge, label %.critedge111

.critedge111:                                     ; preds = %80, %72
  %exitcond.not = icmp eq i64 %73, %umax
  br i1 %exitcond.not, label %.critedge, label %72, !llvm.loop !18

.critedge:                                        ; preds = %.critedge111, %80, %46, %37, %55
  %.0 = phi i1 [ false, %55 ], [ false, %37 ], [ false, %46 ], [ true, %.critedge111 ], [ false, %80 ]
  ret i1 %.0
}